; Function Attrs: nounwind sspstrong uwtable
define internal noundef i64 @bug_str_cstr_unterm(i64 noundef returned %0, i64 noundef %1) #0 {
  tail call void @rb_str_modify(i64 noundef %0) #9
  %3 = inttoptr i64 %0 to ptr
  %4 = getelementptr inbounds nuw i8, ptr %3, i64 16
  %5 = load i64, ptr %4, align 8, !tbaa !10
  %6 = icmp eq i64 %1, 0
  %7 = and i64 %1, 7
  %8 = icmp ne i64 %7, 0
  %9 = or i1 %6, %8
  br i1 %9, label %rbimpl_RB_TYPE_P_fastpath.exit.thread.i, label %rbimpl_RB_TYPE_P_fastpath.exit.i

rbimpl_RB_TYPE_P_fastpath.exit.i:                 ; preds = %2
  %10 = inttoptr i64 %1 to ptr
  %11 = load i64, ptr %10, align 8, !tbaa !18
  %12 = and i64 %11, 31
  %13 = icmp eq i64 %12, 5
  br i1 %13, label %14, label %rbimpl_RB_TYPE_P_fastpath.exit.thread.i

14:                                               ; preds = %rbimpl_RB_TYPE_P_fastpath.exit.i
  %15 = getelementptr inbounds nuw i8, ptr %10, i64 16
  %16 = load i64, ptr %15, align 8, !tbaa !10
  %17 = icmp sgt i64 %16, 0
  br i1 %17, label %18, label %rbimpl_RB_TYPE_P_fastpath.exit.thread.i

18:                                               ; preds = %14
  %19 = and i64 %11, 8192
  %.not.i.i.i = icmp eq i64 %19, 0
  %20 = getelementptr inbounds nuw i8, ptr %10, i64 24
  br i1 %.not.i.i.i, label %RSTRING_PTR.exit.i, label %21

21:                                               ; preds = %18
  %.sroa.2.0.copyload.i.i = load ptr, ptr %20, align 8
  br label %RSTRING_PTR.exit.i

RSTRING_PTR.exit.i:                               ; preds = %21, %18
  %.sroa.2.0.i.i = phi ptr [ %.sroa.2.0.copyload.i.i, %21 ], [ %20, %18 ]
  %22 = load i8, ptr %.sroa.2.0.i.i, align 1, !tbaa !19
  br label %rb_num2char_inline.exit

rbimpl_RB_TYPE_P_fastpath.exit.thread.i:          ; preds = %14, %rbimpl_RB_TYPE_P_fastpath.exit.i, %2
  %23 = and i64 %1, 1
  %.not.i.i = icmp eq i64 %23, 0
  br i1 %.not.i.i, label %26, label %24

24:                                               ; preds = %rbimpl_RB_TYPE_P_fastpath.exit.thread.i
  %25 = tail call i64 @rb_fix2int(i64 noundef %1) #9
  br label %rb_num2int_inline.exit.i

26:                                               ; preds = %rbimpl_RB_TYPE_P_fastpath.exit.thread.i
  %27 = tail call i64 @rb_num2int(i64 noundef %1) #9
  br label %rb_num2int_inline.exit.i

rb_num2int_inline.exit.i:                         ; preds = %26, %24
  %.0.i5.i = phi i64 [ %25, %24 ], [ %27, %26 ]
  %28 = trunc i64 %.0.i5.i to i8
  br label %rb_num2char_inline.exit

rb_num2char_inline.exit:                          ; preds = %RSTRING_PTR.exit.i, %rb_num2int_inline.exit.i
  %.0.i = phi i8 [ %22, %RSTRING_PTR.exit.i ], [ %28, %rb_num2int_inline.exit.i ]
  %29 = load i64, ptr %3, align 8, !tbaa !18, !noalias !20
  %30 = and i64 %29, 8192
  %.not.i.i6 = icmp eq i64 %30, 0
  %31 = getelementptr inbounds nuw i8, ptr %3, i64 24
  br i1 %.not.i.i6, label %RSTRING_PTR.exit, label %32

32:                                               ; preds = %rb_num2char_inline.exit
  %.sroa.2.0.copyload.i = load ptr, ptr %31, align 8
  br label %RSTRING_PTR.exit

RSTRING_PTR.exit:                                 ; preds = %rb_num2char_inline.exit, %32
  %.sroa.2.0.i = phi ptr [ %.sroa.2.0.copyload.i, %32 ], [ %31, %rb_num2char_inline.exit ]
  %33 = getelementptr inbounds i8, ptr %.sroa.2.0.i, i64 %5
  store i8 %.0.i, ptr %33, align 1, !tbaa !19
  ret i64 %0
}